target datalayout = "e-m:e-p270:32:32-p271:32:32-p272:64:64-i64:64-i128:128-f80:128-n8:16:32:64-S128"
target triple = "x86_64-pc-linux-gnu"

%"class.std::vector" = type { %"struct.std::_Vector_base" }
%"struct.std::_Vector_base" = type { %"struct.std::_Vector_base<float, std::allocator<float>>::_Vector_impl" }
%"struct.std::_Vector_base<float, std::allocator<float>>::_Vector_impl" = type { %"struct.std::_Vector_base<float, std::allocator<float>>::_Vector_impl_data" }
%"struct.std::_Vector_base<float, std::allocator<float>>::_Vector_impl_data" = type { ptr, ptr, ptr }
%"struct.faiss::ScalarQuantizer::SQuantizer" = type { ptr }
%"struct.faiss::(anonymous namespace)::QuantizerTemplate.3" = type { %"struct.faiss::ScalarQuantizer::SQuantizer", i64, ptr, ptr }
%"struct.faiss::ScalarQuantizer::SQDistanceComputer" = type { %"struct.faiss::FlatCodesDistanceComputer", ptr }
%"struct.faiss::FlatCodesDistanceComputer" = type { %"struct.faiss::DistanceComputer", ptr, i64 }
%"struct.faiss::DistanceComputer" = type { ptr }
%"struct.faiss::(anonymous namespace)::DCTemplate.11" = type { %"struct.faiss::ScalarQuantizer::SQDistanceComputer", %"struct.faiss::(anonymous namespace)::QuantizerTemplate.3" }
%"struct.faiss::(anonymous namespace)::SimilarityL2" = type <{ ptr, ptr, float, [4 x i8] }>
%"struct.faiss::InvertedListScanner" = type { ptr, i64, i8, i8, ptr, i64 }
%"struct.faiss::(anonymous namespace)::IVFSQScannerL2.41" = type { %"struct.faiss::InvertedListScanner", %"struct.faiss::(anonymous namespace)::DCTemplate.11", i8, ptr, ptr, %"class.std::vector" }

; Function Attrs: mustprogress nounwind uwtable
define internal void @_ZN5faiss12_GLOBAL__N_112SimilarityL2ILi1EEC2EPKf(ptr noundef nonnull align 8 dereferenceable(20) %0, ptr noundef %1) unnamed_addr #1 align 2 {
  %3 = alloca ptr, align 8
  %4 = alloca ptr, align 8
  store ptr %0, ptr %3, align 8
  store ptr %1, ptr %4, align 8
  %5 = load ptr, ptr %3, align 8
  %6 = getelementptr inbounds %"struct.faiss::(anonymous namespace)::SimilarityL2", ptr %5, i32 0, i32 0
  %7 = load ptr, ptr %4, align 8
  store ptr %7, ptr %6, align 8
  ret void
}

; Function Attrs: mustprogress uwtable
define internal noundef float @_ZNK5faiss12_GLOBAL__N_110DCTemplateINS0_17QuantizerTemplateINS0_9Codec6bitELb0ELi1EEENS0_12SimilarityL2ILi1EEELi1EE16compute_distanceEPKfPKh(ptr noundef nonnull align 8 dereferenceable(64) %0, ptr noundef %1, ptr noundef %2) #0 align 2 {
  %4 = alloca ptr, align 8
  %5 = alloca i32, align 4
  %6 = alloca i8, align 1
  %7 = alloca ptr, align 8
  %8 = alloca ptr, align 8
  %9 = alloca i32, align 4
  %10 = alloca float, align 4
  %11 = alloca ptr, align 8
  %12 = alloca float, align 4
  %13 = alloca float, align 4
  %14 = alloca ptr, align 8
  %15 = alloca ptr, align 8
  %16 = alloca ptr, align 8
  %17 = alloca ptr, align 8
  %18 = alloca ptr, align 8
  %19 = alloca %"struct.faiss::(anonymous namespace)::SimilarityL2", align 8
  %20 = alloca i64, align 8
  %21 = alloca float, align 4
  store ptr %0, ptr %16, align 8
  store ptr %1, ptr %17, align 8
  store ptr %2, ptr %18, align 8
  %22 = load ptr, ptr %16, align 8
  %23 = load ptr, ptr %17, align 8
  call void @_ZN5faiss12_GLOBAL__N_112SimilarityL2ILi1EEC2EPKf(ptr noundef nonnull align 8 dereferenceable(20) %19, ptr noundef %23)
  store ptr %19, ptr %15, align 8
  %24 = load ptr, ptr %15, align 8
  %25 = getelementptr inbounds %"struct.faiss::(anonymous namespace)::SimilarityL2", ptr %24, i32 0, i32 2
  store float 0.000000e+00, ptr %25, align 8
  %26 = load ptr, ptr %24, align 8
  %27 = getelementptr inbounds %"struct.faiss::(anonymous namespace)::SimilarityL2", ptr %24, i32 0, i32 1
  store ptr %26, ptr %27, align 8
  store i64 0, ptr %20, align 8
  br label %28

28:                                               ; preds = %129, %3
  %29 = load i64, ptr %20, align 8
  %30 = getelementptr inbounds %"struct.faiss::(anonymous namespace)::DCTemplate.11", ptr %22, i32 0, i32 1
  %31 = getelementptr inbounds %"struct.faiss::(anonymous namespace)::QuantizerTemplate.3", ptr %30, i32 0, i32 1
  %32 = load i64, ptr %31, align 8
  %33 = icmp ult i64 %29, %32
  br i1 %33, label %34, label %132

34:                                               ; preds = %28
  %35 = getelementptr inbounds %"struct.faiss::(anonymous namespace)::DCTemplate.11", ptr %22, i32 0, i32 1
  %36 = load ptr, ptr %18, align 8
  %37 = load i64, ptr %20, align 8
  %38 = trunc i64 %37 to i32
  store ptr %35, ptr %7, align 8
  store ptr %36, ptr %8, align 8
  store i32 %38, ptr %9, align 4
  %39 = load ptr, ptr %7, align 8
  %40 = load ptr, ptr %8, align 8
  %41 = load i32, ptr %9, align 4
  store ptr %40, ptr %4, align 8
  store i32 %41, ptr %5, align 4
  %42 = load i32, ptr %5, align 4
  %43 = ashr i32 %42, 2
  %44 = mul nsw i32 %43, 3
  %45 = load ptr, ptr %4, align 8
  %46 = sext i32 %44 to i64
  %47 = getelementptr inbounds i8, ptr %45, i64 %46
  store ptr %47, ptr %4, align 8
  %48 = load i32, ptr %5, align 4
  %49 = and i32 %48, 3
  switch i32 %49, label %96 [
    i32 0, label %50
    i32 1, label %56
    i32 2, label %72
    i32 3, label %89
  ]

50:                                               ; preds = %34
  %51 = load ptr, ptr %4, align 8
  %52 = load i8, ptr %51, align 1
  %53 = zext i8 %52 to i32
  %54 = and i32 %53, 63
  %55 = trunc i32 %54 to i8
  store i8 %55, ptr %6, align 1
  br label %96

56:                                               ; preds = %34
  %57 = load ptr, ptr %4, align 8
  %58 = load i8, ptr %57, align 1
  %59 = zext i8 %58 to i32
  %60 = ashr i32 %59, 6
  %61 = trunc i32 %60 to i8
  store i8 %61, ptr %6, align 1
  %62 = load ptr, ptr %4, align 8
  %63 = getelementptr inbounds i8, ptr %62, i64 1
  %64 = load i8, ptr %63, align 1
  %65 = zext i8 %64 to i32
  %66 = and i32 %65, 15
  %67 = shl i32 %66, 2
  %68 = load i8, ptr %6, align 1
  %69 = zext i8 %68 to i32
  %70 = or i32 %69, %67
  %71 = trunc i32 %70 to i8
  store i8 %71, ptr %6, align 1
  br label %96

72:                                               ; preds = %34
  %73 = load ptr, ptr %4, align 8
  %74 = getelementptr inbounds i8, ptr %73, i64 1
  %75 = load i8, ptr %74, align 1
  %76 = zext i8 %75 to i32
  %77 = ashr i32 %76, 4
  %78 = trunc i32 %77 to i8
  store i8 %78, ptr %6, align 1
  %79 = load ptr, ptr %4, align 8
  %80 = getelementptr inbounds i8, ptr %79, i64 2
  %81 = load i8, ptr %80, align 1
  %82 = zext i8 %81 to i32
  %83 = and i32 %82, 3
  %84 = shl i32 %83, 4
  %85 = load i8, ptr %6, align 1
  %86 = zext i8 %85 to i32
  %87 = or i32 %86, %84
  %88 = trunc i32 %87 to i8
  store i8 %88, ptr %6, align 1
  br label %96

89:                                               ; preds = %34
  %90 = load ptr, ptr %4, align 8
  %91 = getelementptr inbounds i8, ptr %90, i64 2
  %92 = load i8, ptr %91, align 1
  %93 = zext i8 %92 to i32
  %94 = ashr i32 %93, 2
  %95 = trunc i32 %94 to i8
  store i8 %95, ptr %6, align 1
  br label %96

96:                                               ; preds = %89, %72, %56, %50, %34
  %97 = load i8, ptr %6, align 1
  %98 = zext i8 %97 to i32
  %99 = sitofp i32 %98 to float
  %100 = fadd float %99, 5.000000e-01
  %101 = fdiv float %100, 6.300000e+01
  store float %101, ptr %10, align 4
  %102 = getelementptr inbounds %"struct.faiss::(anonymous namespace)::QuantizerTemplate.3", ptr %39, i32 0, i32 2
  %103 = load ptr, ptr %102, align 8
  %104 = load i32, ptr %9, align 4
  %105 = sext i32 %104 to i64
  %106 = getelementptr inbounds float, ptr %103, i64 %105
  %107 = load float, ptr %106, align 4
  %108 = load float, ptr %10, align 4
  %109 = getelementptr inbounds %"struct.faiss::(anonymous namespace)::QuantizerTemplate.3", ptr %39, i32 0, i32 3
  %110 = load ptr, ptr %109, align 8
  %111 = load i32, ptr %9, align 4
  %112 = sext i32 %111 to i64
  %113 = getelementptr inbounds float, ptr %110, i64 %112
  %114 = load float, ptr %113, align 4
  %115 = call noundef float @llvm.fmuladd.f32(float %108, float %114, float %107)
  store float %115, ptr %21, align 4
  %116 = load float, ptr %21, align 4
  store ptr %19, ptr %11, align 8
  store float %116, ptr %12, align 4
  %117 = load ptr, ptr %11, align 8
  %118 = getelementptr inbounds %"struct.faiss::(anonymous namespace)::SimilarityL2", ptr %117, i32 0, i32 1
  %119 = load ptr, ptr %118, align 8
  %120 = getelementptr inbounds float, ptr %119, i32 1
  store ptr %120, ptr %118, align 8
  %121 = load float, ptr %119, align 4
  %122 = load float, ptr %12, align 4
  %123 = fsub float %121, %122
  store float %123, ptr %13, align 4
  %124 = load float, ptr %13, align 4
  %125 = load float, ptr %13, align 4
  %126 = getelementptr inbounds %"struct.faiss::(anonymous namespace)::SimilarityL2", ptr %117, i32 0, i32 2
  %127 = load float, ptr %126, align 8
  %128 = call float @llvm.fmuladd.f32(float %124, float %125, float %127)
  store float %128, ptr %126, align 8
  br label %129

129:                                              ; preds = %96
  %130 = load i64, ptr %20, align 8
  %131 = add i64 %130, 1
  store i64 %131, ptr %20, align 8
  br label %28, !llvm.loop !52

132:                                              ; preds = %28
  store ptr %19, ptr %14, align 8
  %133 = load ptr, ptr %14, align 8
  %134 = getelementptr inbounds %"struct.faiss::(anonymous namespace)::SimilarityL2", ptr %133, i32 0, i32 2
  %135 = load float, ptr %134, align 8
  ret float %135
}

; Function Attrs: mustprogress uwtable
define internal noundef float @_ZNK5faiss12_GLOBAL__N_110DCTemplateINS0_17QuantizerTemplateINS0_9Codec6bitELb0ELi1EEENS0_12SimilarityL2ILi1EEELi1EE13query_to_codeEPKh(ptr noundef nonnull align 8 dereferenceable(64) %0, ptr noundef %1) unnamed_addr #0 align 2 {
  %3 = alloca ptr, align 8
  %4 = alloca ptr, align 8
  store ptr %0, ptr %3, align 8
  store ptr %1, ptr %4, align 8
  %5 = load ptr, ptr %3, align 8
  %6 = getelementptr inbounds %"struct.faiss::ScalarQuantizer::SQDistanceComputer", ptr %5, i32 0, i32 1
  %7 = load ptr, ptr %6, align 8
  %8 = load ptr, ptr %4, align 8
  %9 = call noundef float @_ZNK5faiss12_GLOBAL__N_110DCTemplateINS0_17QuantizerTemplateINS0_9Codec6bitELb0ELi1EEENS0_12SimilarityL2ILi1EEELi1EE16compute_distanceEPKfPKh(ptr noundef nonnull align 8 dereferenceable(64) %5, ptr noundef %7, ptr noundef %8)
  ret float %9
}

; Function Attrs: mustprogress uwtable
define internal void @_ZNK5faiss12_GLOBAL__N_114IVFSQScannerL2INS0_10DCTemplateINS0_17QuantizerTemplateINS0_9Codec6bitELb0ELi1EEENS0_12SimilarityL2ILi1EEELi1EEELi0EE16scan_codes_rangeEmPKhPKlfRNS_16RangeQueryResultE(ptr noundef nonnull align 8 dereferenceable(152) %0, i64 noundef %1, ptr noundef %2, ptr noundef %3, float noundef %4, ptr noundef nonnull align 8 dereferenceable(24) %5) unnamed_addr #0 align 2 {
  %7 = alloca ptr, align 8
  %8 = alloca i64, align 8
  %9 = alloca ptr, align 8
  %10 = alloca ptr, align 8
  %11 = alloca float, align 4
  %12 = alloca ptr, align 8
  %13 = alloca i64, align 8
  %14 = alloca float, align 4
  %15 = alloca i64, align 8
  store ptr %0, ptr %7, align 8
  store i64 %1, ptr %8, align 8
  store ptr %2, ptr %9, align 8
  store ptr %3, ptr %10, align 8
  store float %4, ptr %11, align 4
  store ptr %5, ptr %12, align 8
  %16 = load ptr, ptr %7, align 8
  store i64 0, ptr %13, align 8
  br label %17

17:                                               ; preds = %49, %6
  %18 = load i64, ptr %13, align 8
  %19 = load i64, ptr %8, align 8
  %20 = icmp ult i64 %18, %19
  br i1 %20, label %21, label %56

21:                                               ; preds = %17
  %22 = getelementptr inbounds %"struct.faiss::(anonymous namespace)::IVFSQScannerL2.41", ptr %16, i32 0, i32 1
  %23 = load ptr, ptr %9, align 8
  %24 = call noundef float @_ZNK5faiss12_GLOBAL__N_110DCTemplateINS0_17QuantizerTemplateINS0_9Codec6bitELb0ELi1EEENS0_12SimilarityL2ILi1EEELi1EE13query_to_codeEPKh(ptr noundef nonnull align 8 dereferenceable(64) %22, ptr noundef %23)
  store float %24, ptr %14, align 4
  %25 = load float, ptr %14, align 4
  %26 = load float, ptr %11, align 4
  %27 = fcmp olt float %25, %26
  br i1 %27, label %28, label %48

28:                                               ; preds = %21
  %29 = getelementptr inbounds %"struct.faiss::InvertedListScanner", ptr %16, i32 0, i32 3
  %30 = load i8, ptr %29, align 1
  %31 = trunc i8 %30 to i1
  br i1 %31, label %32, label %38

32:                                               ; preds = %28
  %33 = getelementptr inbounds %"struct.faiss::InvertedListScanner", ptr %16, i32 0, i32 1
  %34 = load i64, ptr %33, align 8
  %35 = shl i64 %34, 32
  %36 = load i64, ptr %13, align 8
  %37 = or i64 %35, %36
  br label %43

38:                                               ; preds = %28
  %39 = load ptr, ptr %10, align 8
  %40 = load i64, ptr %13, align 8
  %41 = getelementptr inbounds i64, ptr %39, i64 %40
  %42 = load i64, ptr %41, align 8
  br label %43

43:                                               ; preds = %38, %32
  %44 = phi i64 [ %37, %32 ], [ %42, %38 ]
  store i64 %44, ptr %15, align 8
  %45 = load ptr, ptr %12, align 8
  %46 = load float, ptr %14, align 4
  %47 = load i64, ptr %15, align 8
  call void @_ZN5faiss16RangeQueryResult3addEfl(ptr noundef nonnull align 8 dereferenceable(24) %45, float noundef %46, i64 noundef %47)
  br label %48

48:                                               ; preds = %43, %21
  br label %49

49:                                               ; preds = %48
  %50 = load i64, ptr %13, align 8
  %51 = add i64 %50, 1
  store i64 %51, ptr %13, align 8
  %52 = getelementptr inbounds %"struct.faiss::InvertedListScanner", ptr %16, i32 0, i32 5
  %53 = load i64, ptr %52, align 8
  %54 = load ptr, ptr %9, align 8
  %55 = getelementptr inbounds i8, ptr %54, i64 %53
  store ptr %55, ptr %9, align 8
  br label %17, !llvm.loop !107

56:                                               ; preds = %17
  ret void
}