; Function Attrs: mustprogress uwtable
define internal void @_ZNK5faiss12_GLOBAL__N_114IVFSQScannerL2INS0_10DCTemplateINS0_17QuantizerTemplateINS0_9Codec6bitELb0ELi1EEENS0_12SimilarityL2ILi1EEELi1EEELi0EE16scan_codes_rangeEmPKhPKlfRNS_16RangeQueryResultE(ptr nocapture noundef nonnull readonly align 8 dereferenceable(152) %0, i64 noundef %1, ptr nocapture noundef readonly %2, ptr nocapture noundef readonly %3, float noundef %4, ptr noundef nonnull align 8 dereferenceable(24) %5) unnamed_addr #0 align 2 {
  %.not18 = icmp eq i64 %1, 0
  br i1 %.not18, label %._crit_edge, label %.lr.ph

.lr.ph:                                           ; preds = %6
  %7 = getelementptr inbounds i8, ptr %0, i64 80
  %8 = getelementptr inbounds i8, ptr %0, i64 64
  %9 = getelementptr inbounds i8, ptr %0, i64 88
  %10 = getelementptr inbounds i8, ptr %0, i64 96
  %11 = getelementptr inbounds i8, ptr %0, i64 17
  %12 = getelementptr inbounds i8, ptr %0, i64 8
  %13 = getelementptr inbounds i8, ptr %0, i64 32
  br label %14

14:                                               ; preds = %.lr.ph, %78
  %.017 = phi ptr [ %2, %.lr.ph ], [ %81, %78 ]
  %.01315 = phi i64 [ 0, %.lr.ph ], [ %79, %78 ]
  %15 = load i64, ptr %7, align 8
  %.not.i.i = icmp eq i64 %15, 0
  br i1 %.not.i.i, label %_ZNK5faiss12_GLOBAL__N_110DCTemplateINS0_17QuantizerTemplateINS0_9Codec6bitELb0ELi1EEENS0_12SimilarityL2ILi1EEELi1EE13query_to_codeEPKh.exit, label %.lr.ph.i.i

.lr.ph.i.i:                                       ; preds = %14
  %16 = load ptr, ptr %8, align 8
  %17 = load ptr, ptr %9, align 8
  %18 = load ptr, ptr %10, align 8
  br label %19

19:                                               ; preds = %50, %.lr.ph.i.i
  %.035.i.i = phi i64 [ 0, %.lr.ph.i.i ], [ %64, %50 ]
  %.sroa.5.034.i.i = phi float [ 0.000000e+00, %.lr.ph.i.i ], [ %63, %50 ]
  %.sroa.2.033.i.i = phi ptr [ %16, %.lr.ph.i.i ], [ %60, %50 ]
  %20 = trunc i64 %.035.i.i to i32
  %21 = ashr i32 %20, 2
  %22 = mul nsw i32 %21, 3
  %23 = sext i32 %22 to i64
  %24 = getelementptr inbounds i8, ptr %.017, i64 %23
  %25 = and i32 %20, 3
  switch i32 %25, label %default.unreachable [
    i32 0, label %26
    i32 1, label %29
    i32 2, label %37
    i32 3, label %46
  ]

26:                                               ; preds = %19
  %27 = load i8, ptr %24, align 1
  %28 = and i8 %27, 63
  br label %50

29:                                               ; preds = %19
  %30 = load i8, ptr %24, align 1
  %31 = lshr i8 %30, 6
  %32 = getelementptr inbounds i8, ptr %24, i64 1
  %33 = load i8, ptr %32, align 1
  %34 = shl i8 %33, 2
  %35 = and i8 %34, 60
  %36 = or disjoint i8 %35, %31
  br label %50

37:                                               ; preds = %19
  %38 = getelementptr inbounds i8, ptr %24, i64 1
  %39 = load i8, ptr %38, align 1
  %40 = lshr i8 %39, 4
  %41 = getelementptr inbounds i8, ptr %24, i64 2
  %42 = load i8, ptr %41, align 1
  %43 = shl i8 %42, 4
  %44 = and i8 %43, 48
  %45 = or disjoint i8 %44, %40
  br label %50

46:                                               ; preds = %19
  %47 = getelementptr inbounds i8, ptr %24, i64 2
  %48 = load i8, ptr %47, align 1
  %49 = lshr i8 %48, 2
  br label %50

default.unreachable:                              ; preds = %19
  unreachable

50:                                               ; preds = %46, %37, %29, %26
  %.030.i.i = phi i8 [ %49, %46 ], [ %45, %37 ], [ %36, %29 ], [ %28, %26 ]
  %51 = uitofp i8 %.030.i.i to float
  %52 = fadd float %51, 5.000000e-01
  %53 = fdiv float %52, 6.300000e+01
  %sext.i.i = shl i64 %.035.i.i, 32
  %54 = ashr exact i64 %sext.i.i, 32
  %55 = getelementptr inbounds float, ptr %17, i64 %54
  %56 = load float, ptr %55, align 4
  %57 = getelementptr inbounds float, ptr %18, i64 %54
  %58 = load float, ptr %57, align 4
  %59 = tail call noundef float @llvm.fmuladd.f32(float %53, float %58, float %56)
  %60 = getelementptr inbounds i8, ptr %.sroa.2.033.i.i, i64 4
  %61 = load float, ptr %.sroa.2.033.i.i, align 4
  %62 = fsub float %61, %59
  %63 = tail call float @llvm.fmuladd.f32(float %62, float %62, float %.sroa.5.034.i.i)
  %64 = add nuw i64 %.035.i.i, 1
  %exitcond.not.i.i = icmp eq i64 %64, %15
  br i1 %exitcond.not.i.i, label %_ZNK5faiss12_GLOBAL__N_110DCTemplateINS0_17QuantizerTemplateINS0_9Codec6bitELb0ELi1EEENS0_12SimilarityL2ILi1EEELi1EE13query_to_codeEPKh.exit, label %19, !llvm.loop !51

_ZNK5faiss12_GLOBAL__N_110DCTemplateINS0_17QuantizerTemplateINS0_9Codec6bitELb0ELi1EEENS0_12SimilarityL2ILi1EEELi1EE13query_to_codeEPKh.exit: ; preds = %50, %14
  %.sroa.5.0.lcssa.i.i = phi float [ 0.000000e+00, %14 ], [ %63, %50 ]
  %65 = fcmp olt float %.sroa.5.0.lcssa.i.i, %4
  br i1 %65, label %66, label %78

66:                                               ; preds = %_ZNK5faiss12_GLOBAL__N_110DCTemplateINS0_17QuantizerTemplateINS0_9Codec6bitELb0ELi1EEENS0_12SimilarityL2ILi1EEELi1EE13query_to_codeEPKh.exit
  %67 = load i8, ptr %11, align 1
  %68 = and i8 %67, 1
  %.not = icmp eq i8 %68, 0
  br i1 %.not, label %73, label %69

69:                                               ; preds = %66
  %70 = load i64, ptr %12, align 8
  %71 = shl i64 %70, 32
  %72 = or i64 %71, %.01315
  br label %76

73:                                               ; preds = %66
  %74 = getelementptr inbounds i64, ptr %3, i64 %.01315
  %75 = load i64, ptr %74, align 8
  br label %76

76:                                               ; preds = %73, %69
  %77 = phi i64 [ %72, %69 ], [ %75, %73 ]
  tail call void @_ZN5faiss16RangeQueryResult3addEfl(ptr noundef nonnull align 8 dereferenceable(24) %5, float noundef %.sroa.5.0.lcssa.i.i, i64 noundef %77)
  br label %78

78:                                               ; preds = %_ZNK5faiss12_GLOBAL__N_110DCTemplateINS0_17QuantizerTemplateINS0_9Codec6bitELb0ELi1EEENS0_12SimilarityL2ILi1EEELi1EE13query_to_codeEPKh.exit, %76
  %79 = add nuw i64 %.01315, 1
  %80 = load i64, ptr %13, align 8
  %81 = getelementptr inbounds i8, ptr %.017, i64 %80
  %exitcond.not = icmp eq i64 %79, %1
  br i1 %exitcond.not, label %._crit_edge, label %14, !llvm.loop !106

._crit_edge:                                      ; preds = %78, %6
  ret void
}